target datalayout = "e-m:e-p270:32:32-p271:32:32-p272:64:64-i64:64-i128:128-f80:128-n8:16:32:64-S128"
target triple = "x86_64-pc-linux-gnu"

; Function Attrs: nounwind uwtable
define dso_local ptr @raxReallocForData(ptr noundef %0, ptr noundef %1) #0 {
  %3 = alloca ptr, align 8
  %4 = alloca ptr, align 8
  %5 = alloca ptr, align 8
  %6 = alloca i64, align 8
  store ptr %0, ptr %4, align 8, !tbaa !11
  store ptr %1, ptr %5, align 8, !tbaa !16
  %7 = load ptr, ptr %5, align 8, !tbaa !16
  %8 = icmp eq ptr %7, null
  br i1 %8, label %9, label %11

9:                                                ; preds = %2
  %10 = load ptr, ptr %4, align 8, !tbaa !11
  store ptr %10, ptr %3, align 8
  br label %62

11:                                               ; preds = %2
  call void @llvm.lifetime.start.p0(i64 8, ptr %6) #13
  %12 = load ptr, ptr %4, align 8, !tbaa !11
  %13 = load i32, ptr %12, align 4
  %14 = lshr i32 %13, 3
  %15 = zext i32 %14 to i64
  %16 = add i64 4, %15
  %17 = load ptr, ptr %4, align 8, !tbaa !11
  %18 = load i32, ptr %17, align 4
  %19 = lshr i32 %18, 3
  %20 = add nsw i32 %19, 4
  %21 = sext i32 %20 to i64
  %22 = urem i64 %21, 8
  %23 = sub i64 8, %22
  %24 = and i64 %23, 7
  %25 = add i64 %16, %24
  %26 = load ptr, ptr %4, align 8, !tbaa !11
  %27 = load i32, ptr %26, align 4
  %28 = lshr i32 %27, 2
  %29 = and i32 %28, 1
  %30 = icmp ne i32 %29, 0
  br i1 %30, label %31, label %32

31:                                               ; preds = %11
  br label %38

32:                                               ; preds = %11
  %33 = load ptr, ptr %4, align 8, !tbaa !11
  %34 = load i32, ptr %33, align 4
  %35 = lshr i32 %34, 3
  %36 = zext i32 %35 to i64
  %37 = mul i64 8, %36
  br label %38

38:                                               ; preds = %32, %31
  %39 = phi i64 [ 8, %31 ], [ %37, %32 ]
  %40 = add i64 %25, %39
  %41 = load ptr, ptr %4, align 8, !tbaa !11
  %42 = load i32, ptr %41, align 4
  %43 = and i32 %42, 1
  %44 = icmp ne i32 %43, 0
  br i1 %44, label %45, label %52

45:                                               ; preds = %38
  %46 = load ptr, ptr %4, align 8, !tbaa !11
  %47 = load i32, ptr %46, align 4
  %48 = lshr i32 %47, 1
  %49 = and i32 %48, 1
  %50 = icmp ne i32 %49, 0
  %51 = xor i1 %50, true
  br label %52

52:                                               ; preds = %45, %38
  %53 = phi i1 [ false, %38 ], [ %51, %45 ]
  %54 = zext i1 %53 to i32
  %55 = sext i32 %54 to i64
  %56 = mul i64 %55, 8
  %57 = add i64 %40, %56
  store i64 %57, ptr %6, align 8, !tbaa !9
  %58 = load ptr, ptr %4, align 8, !tbaa !11
  %59 = load i64, ptr %6, align 8, !tbaa !9
  %60 = add i64 %59, 8
  %61 = call ptr @zrealloc(ptr noundef %58, i64 noundef %60) #15
  store ptr %61, ptr %3, align 8
  call void @llvm.lifetime.end.p0(i64 8, ptr %6) #13
  br label %62

62:                                               ; preds = %52, %9
  %63 = load ptr, ptr %3, align 8
  ret ptr %63
}