; Function Attrs: nounwind uwtable
define dso_local ptr @raxReallocForData(ptr noundef %0, ptr noundef readnone captures(address_is_null) %1) local_unnamed_addr #1 {
  %3 = icmp eq ptr %1, null
  br i1 %3, label %23, label %4

4:                                                ; preds = %2
  %5 = load i32, ptr %0, align 4
  %6 = lshr i32 %5, 3
  %7 = zext nneg i32 %6 to i64
  %8 = xor i32 %6, 3
  %.neg = add nuw nsw i32 %8, 1
  %9 = and i32 %.neg, 7
  %10 = zext nneg i32 %9 to i64
  %11 = and i32 %5, 4
  %.not = icmp eq i32 %11, 0
  %12 = shl nuw nsw i64 %7, 3
  %spec.select = select i1 %.not, i64 %12, i64 8
  %13 = and i32 %5, 1
  %.not10 = icmp eq i32 %13, 0
  %14 = shl i32 %5, 2
  %15 = and i32 %14, 8
  %16 = xor i32 %15, 8
  %narrow = select i1 %.not10, i32 0, i32 %16
  %17 = zext nneg i32 %narrow to i64
  %18 = add nuw nsw i64 %7, 12
  %19 = add nuw nsw i64 %18, %spec.select
  %20 = add nuw nsw i64 %19, %10
  %21 = add nuw nsw i64 %20, %17
  %22 = tail call ptr @zrealloc(ptr noundef nonnull %0, i64 noundef %21) #27
  br label %23

23:                                               ; preds = %2, %4
  %.0 = phi ptr [ %22, %4 ], [ %0, %2 ]
  ret ptr %.0
}